; Function Attrs: nounwind uwtable
define dso_local noundef ptr @ExecuteSqlQuery(ptr noundef readonly captures(none) %0, ptr noundef %1, i32 noundef %2) local_unnamed_addr #0 {
  %4 = getelementptr inbounds nuw i8, ptr %0, i64 440
  %5 = load ptr, ptr %4, align 8
  %6 = tail call ptr @PQexec(ptr noundef %5, ptr noundef %1) #11
  %7 = tail call i32 @PQresultStatus(ptr noundef %6) #11
  %.not = icmp eq i32 %7, %2
  br i1 %.not, label %9, label %8

8:                                                ; preds = %3
  %.val = load ptr, ptr %4, align 8
  tail call fastcc void @die_on_query_failure(ptr %.val, ptr noundef %1)
  unreachable

9:                                                ; preds = %3
  ret ptr %6
}